target datalayout = "e-m:e-p270:32:32-p271:32:32-p272:64:64-i64:64-i128:128-f80:128-n8:16:32:64-S128"
target triple = "x86_64-pc-linux-gnu"

%struct.rtree_ctx_s = type { [16 x %struct.rtree_ctx_cache_elm_s], [8 x %struct.rtree_ctx_cache_elm_s] }
%struct.rtree_ctx_cache_elm_s = type { i64, ptr }
%struct.edata_s = type { i64, ptr, %union.anon.1, ptr, i64, %union.anon.2, %union.anon.5 }
%union.anon.1 = type { i64 }
%union.anon.2 = type { %union.anon.4 }
%union.anon.4 = type { %struct.edata_heap_link_t }
%struct.edata_heap_link_t = type { %struct.phn_link_s }
%struct.phn_link_s = type { ptr, ptr, ptr }
%union.anon.5 = type { %struct.slab_data_s }
%struct.slab_data_s = type { [8 x i64] }
%struct.emap_prepare_s = type { ptr, ptr, ptr, ptr }
%struct.tsdn_s = type { %struct.tsd_s }
%struct.tsd_s = type { i8, i8, i8, i64, i64, i64, i64, i64, i64, i64, i64, i64, i64, i64, i64, ptr, i64, i64, i64, ptr, ptr, %struct.ticker_geom_s, i8, %struct.tsd_binshards_s, %struct.tsd_link_t, i8, %struct.peak_s, %struct.activity_callback_thunk_s, %struct.tcache_slow_s, %struct.rtree_ctx_s, %struct.atomic_u8_t, i64, i64, i64, i64, %struct.tcache_s, %struct.witness_tsd_s }
%struct.ticker_geom_s = type { i32, i32 }
%struct.tsd_binshards_s = type { [36 x i8] }
%struct.tsd_link_t = type { ptr, ptr }
%struct.peak_s = type { i64, i64 }
%struct.activity_callback_thunk_s = type { ptr, ptr }
%struct.tcache_slow_s = type { %struct.anon.7, %struct.cache_bin_array_descriptor_s, ptr, i32, i32, [36 x i8], [36 x i8], [36 x i8], ptr, ptr }
%struct.anon.7 = type { ptr, ptr }
%struct.cache_bin_array_descriptor_s = type { %struct.anon.8, ptr }
%struct.anon.8 = type { ptr, ptr }
%struct.atomic_u8_t = type { i8 }
%struct.tcache_s = type { ptr, [73 x %struct.cache_bin_s] }
%struct.cache_bin_s = type { ptr, %struct.cache_bin_stats_s, i16, i16, i16, %struct.cache_bin_info_s }
%struct.cache_bin_stats_s = type { i64 }
%struct.cache_bin_info_s = type { i16 }
%struct.witness_tsd_s = type { %struct.witness_list_t, i8 }
%struct.witness_list_t = type { ptr }

; Function Attrs: alwaysinline nounwind uwtable
define internal ptr @tsd_rtree_ctxp_get_unsafe(ptr noundef %0) #3 {
  %2 = alloca ptr, align 8
  store ptr %0, ptr %2, align 8, !tbaa !26
  %3 = load ptr, ptr %2, align 8, !tbaa !26
  %4 = getelementptr inbounds nuw %struct.tsd_s, ptr %3, i32 0, i32 29
  ret ptr %4
}

; Function Attrs: alwaysinline nounwind uwtable
define internal zeroext i8 @tsd_state_get(ptr noundef %0) #3 {
  %2 = alloca ptr, align 8
  store ptr %0, ptr %2, align 8, !tbaa !26
  %3 = load ptr, ptr %2, align 8, !tbaa !26
  %4 = getelementptr inbounds nuw %struct.tsd_s, ptr %3, i32 0, i32 30
  %5 = load i8, ptr %4, align 8, !tbaa !39
  ret i8 %5
}

; Function Attrs: alwaysinline nounwind uwtable
define internal ptr @tsd_rtree_ctxp_get(ptr noundef %0) #3 {
  %2 = alloca ptr, align 8
  %3 = alloca i8, align 1
  store ptr %0, ptr %2, align 8, !tbaa !26
  call void @llvm.lifetime.start.p0(i64 1, ptr %3) #8
  %4 = load ptr, ptr %2, align 8, !tbaa !26
  %5 = call zeroext i8 @tsd_state_get(ptr noundef %4)
  store i8 %5, ptr %3, align 1, !tbaa !39
  br label %6

6:                                                ; preds = %1
  br label %7

7:                                                ; preds = %6
  br label %8

8:                                                ; preds = %7
  %9 = load ptr, ptr %2, align 8, !tbaa !26
  %10 = call ptr @tsd_rtree_ctxp_get_unsafe(ptr noundef %9)
  call void @llvm.lifetime.end.p0(i64 1, ptr %3) #8
  ret ptr %10
}

; Function Attrs: inlinehint nounwind uwtable
define internal void @edata_is_head_set(ptr noundef %0, i1 noundef zeroext %1) #2 {
  %3 = alloca ptr, align 8
  %4 = alloca i8, align 1
  store ptr %0, ptr %3, align 8, !tbaa !16
  %5 = zext i1 %1 to i8
  store i8 %5, ptr %4, align 1, !tbaa !10
  %6 = load ptr, ptr %3, align 8, !tbaa !16
  %7 = getelementptr inbounds nuw %struct.edata_s, ptr %6, i32 0, i32 0
  %8 = load i64, ptr %7, align 8, !tbaa !28
  %9 = and i64 %8, -17592186044417
  %10 = load i8, ptr %4, align 1, !tbaa !10, !range !12, !noundef !13
  %11 = trunc i8 %10 to i1
  %12 = zext i1 %11 to i64
  %13 = shl i64 %12, 44
  %14 = or i64 %9, %13
  %15 = load ptr, ptr %3, align 8, !tbaa !16
  %16 = getelementptr inbounds nuw %struct.edata_s, ptr %15, i32 0, i32 0
  store i64 %14, ptr %16, align 8, !tbaa !28
  ret void
}

; Function Attrs: inlinehint nounwind uwtable
define internal void @edata_pai_set(ptr noundef %0, i32 noundef %1) #2 {
  %3 = alloca ptr, align 8
  %4 = alloca i32, align 4
  store ptr %0, ptr %3, align 8, !tbaa !16
  store i32 %1, ptr %4, align 4, !tbaa !18
  %5 = load ptr, ptr %3, align 8, !tbaa !16
  %6 = getelementptr inbounds nuw %struct.edata_s, ptr %5, i32 0, i32 0
  %7 = load i64, ptr %6, align 8, !tbaa !28
  %8 = and i64 %7, -16385
  %9 = load i32, ptr %4, align 4, !tbaa !18
  %10 = zext i32 %9 to i64
  %11 = shl i64 %10, 14
  %12 = or i64 %8, %11
  %13 = load ptr, ptr %3, align 8, !tbaa !16
  %14 = getelementptr inbounds nuw %struct.edata_s, ptr %13, i32 0, i32 0
  store i64 %12, ptr %14, align 8, !tbaa !28
  ret void
}

; Function Attrs: inlinehint nounwind uwtable
define internal void @edata_committed_set(ptr noundef %0, i1 noundef zeroext %1) #2 {
  %3 = alloca ptr, align 8
  %4 = alloca i8, align 1
  store ptr %0, ptr %3, align 8, !tbaa !16
  %5 = zext i1 %1 to i8
  store i8 %5, ptr %4, align 1, !tbaa !10
  %6 = load ptr, ptr %3, align 8, !tbaa !16
  %7 = getelementptr inbounds nuw %struct.edata_s, ptr %6, i32 0, i32 0
  %8 = load i64, ptr %7, align 8, !tbaa !28
  %9 = and i64 %8, -8193
  %10 = load i8, ptr %4, align 1, !tbaa !10, !range !12, !noundef !13
  %11 = trunc i8 %10 to i1
  %12 = zext i1 %11 to i64
  %13 = shl i64 %12, 13
  %14 = or i64 %9, %13
  %15 = load ptr, ptr %3, align 8, !tbaa !16
  %16 = getelementptr inbounds nuw %struct.edata_s, ptr %15, i32 0, i32 0
  store i64 %14, ptr %16, align 8, !tbaa !28
  ret void
}

; Function Attrs: inlinehint nounwind uwtable
define internal void @edata_zeroed_set(ptr noundef %0, i1 noundef zeroext %1) #2 {
  %3 = alloca ptr, align 8
  %4 = alloca i8, align 1
  store ptr %0, ptr %3, align 8, !tbaa !16
  %5 = zext i1 %1 to i8
  store i8 %5, ptr %4, align 1, !tbaa !10
  %6 = load ptr, ptr %3, align 8, !tbaa !16
  %7 = getelementptr inbounds nuw %struct.edata_s, ptr %6, i32 0, i32 0
  %8 = load i64, ptr %7, align 8, !tbaa !28
  %9 = and i64 %8, -32769
  %10 = load i8, ptr %4, align 1, !tbaa !10, !range !12, !noundef !13
  %11 = trunc i8 %10 to i1
  %12 = zext i1 %11 to i64
  %13 = shl i64 %12, 15
  %14 = or i64 %9, %13
  %15 = load ptr, ptr %3, align 8, !tbaa !16
  %16 = getelementptr inbounds nuw %struct.edata_s, ptr %15, i32 0, i32 0
  store i64 %14, ptr %16, align 8, !tbaa !28
  ret void
}

; Function Attrs: inlinehint nounwind uwtable
define internal void @edata_guarded_set(ptr noundef %0, i1 noundef zeroext %1) #2 {
  %3 = alloca ptr, align 8
  %4 = alloca i8, align 1
  store ptr %0, ptr %3, align 8, !tbaa !16
  %5 = zext i1 %1 to i8
  store i8 %5, ptr %4, align 1, !tbaa !10
  %6 = load ptr, ptr %3, align 8, !tbaa !16
  %7 = getelementptr inbounds nuw %struct.edata_s, ptr %6, i32 0, i32 0
  %8 = load i64, ptr %7, align 8, !tbaa !28
  %9 = and i64 %8, -65537
  %10 = load i8, ptr %4, align 1, !tbaa !10, !range !12, !noundef !13
  %11 = trunc i8 %10 to i1
  %12 = zext i1 %11 to i64
  %13 = shl i64 %12, 16
  %14 = or i64 %9, %13
  %15 = load ptr, ptr %3, align 8, !tbaa !16
  %16 = getelementptr inbounds nuw %struct.edata_s, ptr %15, i32 0, i32 0
  store i64 %14, ptr %16, align 8, !tbaa !28
  ret void
}

; Function Attrs: inlinehint nounwind uwtable
define internal void @edata_state_set(ptr noundef %0, i32 noundef %1) #2 {
  %3 = alloca ptr, align 8
  %4 = alloca i32, align 4
  store ptr %0, ptr %3, align 8, !tbaa !16
  store i32 %1, ptr %4, align 4, !tbaa !18
  %5 = load ptr, ptr %3, align 8, !tbaa !16
  %6 = getelementptr inbounds nuw %struct.edata_s, ptr %5, i32 0, i32 0
  %7 = load i64, ptr %6, align 8, !tbaa !28
  %8 = and i64 %7, -917505
  %9 = load i32, ptr %4, align 4, !tbaa !18
  %10 = zext i32 %9 to i64
  %11 = shl i64 %10, 17
  %12 = or i64 %8, %11
  %13 = load ptr, ptr %3, align 8, !tbaa !16
  %14 = getelementptr inbounds nuw %struct.edata_s, ptr %13, i32 0, i32 0
  store i64 %12, ptr %14, align 8, !tbaa !28
  ret void
}

; Function Attrs: inlinehint nounwind uwtable
define internal void @edata_sn_set(ptr noundef %0, i64 noundef %1) #2 {
  %3 = alloca ptr, align 8
  %4 = alloca i64, align 8
  store ptr %0, ptr %3, align 8, !tbaa !16
  store i64 %1, ptr %4, align 8, !tbaa !34
  %5 = load i64, ptr %4, align 8, !tbaa !34
  %6 = load ptr, ptr %3, align 8, !tbaa !16
  %7 = getelementptr inbounds nuw %struct.edata_s, ptr %6, i32 0, i32 4
  store i64 %5, ptr %7, align 8, !tbaa !68
  ret void
}

; Function Attrs: inlinehint nounwind uwtable
define internal void @edata_szind_set(ptr noundef %0, i32 noundef %1) #2 {
  %3 = alloca ptr, align 8
  %4 = alloca i32, align 4
  store ptr %0, ptr %3, align 8, !tbaa !16
  store i32 %1, ptr %4, align 4, !tbaa !18
  br label %5

5:                                                ; preds = %2
  br label %6

6:                                                ; preds = %5
  %7 = load ptr, ptr %3, align 8, !tbaa !16
  %8 = getelementptr inbounds nuw %struct.edata_s, ptr %7, i32 0, i32 0
  %9 = load i64, ptr %8, align 8, !tbaa !28
  %10 = and i64 %9, -267386881
  %11 = load i32, ptr %4, align 4, !tbaa !18
  %12 = zext i32 %11 to i64
  %13 = shl i64 %12, 20
  %14 = or i64 %10, %13
  %15 = load ptr, ptr %3, align 8, !tbaa !16
  %16 = getelementptr inbounds nuw %struct.edata_s, ptr %15, i32 0, i32 0
  store i64 %14, ptr %16, align 8, !tbaa !28
  ret void
}

; Function Attrs: inlinehint nounwind uwtable
define internal void @edata_slab_set(ptr noundef %0, i1 noundef zeroext %1) #2 {
  %3 = alloca ptr, align 8
  %4 = alloca i8, align 1
  store ptr %0, ptr %3, align 8, !tbaa !16
  %5 = zext i1 %1 to i8
  store i8 %5, ptr %4, align 1, !tbaa !10
  %6 = load ptr, ptr %3, align 8, !tbaa !16
  %7 = getelementptr inbounds nuw %struct.edata_s, ptr %6, i32 0, i32 0
  %8 = load i64, ptr %7, align 8, !tbaa !28
  %9 = and i64 %8, -4097
  %10 = load i8, ptr %4, align 1, !tbaa !10, !range !12, !noundef !13
  %11 = trunc i8 %10 to i1
  %12 = zext i1 %11 to i64
  %13 = shl i64 %12, 12
  %14 = or i64 %9, %13
  %15 = load ptr, ptr %3, align 8, !tbaa !16
  %16 = getelementptr inbounds nuw %struct.edata_s, ptr %15, i32 0, i32 0
  store i64 %14, ptr %16, align 8, !tbaa !28
  ret void
}

; Function Attrs: inlinehint nounwind uwtable
define internal void @edata_size_set(ptr noundef %0, i64 noundef %1) #2 {
  %3 = alloca ptr, align 8
  %4 = alloca i64, align 8
  store ptr %0, ptr %3, align 8, !tbaa !16
  store i64 %1, ptr %4, align 8, !tbaa !34
  br label %5

5:                                                ; preds = %2
  br label %6

6:                                                ; preds = %5
  %7 = load i64, ptr %4, align 8, !tbaa !34
  %8 = load ptr, ptr %3, align 8, !tbaa !16
  %9 = getelementptr inbounds nuw %struct.edata_s, ptr %8, i32 0, i32 2
  %10 = load i64, ptr %9, align 8, !tbaa !39
  %11 = and i64 %10, 4095
  %12 = or i64 %7, %11
  %13 = load ptr, ptr %3, align 8, !tbaa !16
  %14 = getelementptr inbounds nuw %struct.edata_s, ptr %13, i32 0, i32 2
  store i64 %12, ptr %14, align 8, !tbaa !39
  ret void
}

; Function Attrs: inlinehint nounwind uwtable
define internal void @edata_addr_set(ptr noundef %0, ptr noundef %1) #2 {
  %3 = alloca ptr, align 8
  %4 = alloca ptr, align 8
  store ptr %0, ptr %3, align 8, !tbaa !16
  store ptr %1, ptr %4, align 8, !tbaa !40
  %5 = load ptr, ptr %4, align 8, !tbaa !40
  %6 = load ptr, ptr %3, align 8, !tbaa !16
  %7 = getelementptr inbounds nuw %struct.edata_s, ptr %6, i32 0, i32 1
  store ptr %5, ptr %7, align 8, !tbaa !38
  ret void
}

; Function Attrs: inlinehint nounwind uwtable
define internal void @edata_arena_ind_set(ptr noundef %0, i32 noundef %1) #2 {
  %3 = alloca ptr, align 8
  %4 = alloca i32, align 4
  store ptr %0, ptr %3, align 8, !tbaa !16
  store i32 %1, ptr %4, align 4, !tbaa !18
  %5 = load ptr, ptr %3, align 8, !tbaa !16
  %6 = getelementptr inbounds nuw %struct.edata_s, ptr %5, i32 0, i32 0
  %7 = load i64, ptr %6, align 8, !tbaa !28
  %8 = and i64 %7, -4096
  %9 = load i32, ptr %4, align 4, !tbaa !18
  %10 = zext i32 %9 to i64
  %11 = shl i64 %10, 0
  %12 = or i64 %8, %11
  %13 = load ptr, ptr %3, align 8, !tbaa !16
  %14 = getelementptr inbounds nuw %struct.edata_s, ptr %13, i32 0, i32 0
  store i64 %12, ptr %14, align 8, !tbaa !28
  ret void
}

; Function Attrs: alwaysinline nounwind uwtable
define internal ptr @tsd_rtree_ctx(ptr noundef %0) #3 {
  %2 = alloca ptr, align 8
  store ptr %0, ptr %2, align 8, !tbaa !26
  %3 = load ptr, ptr %2, align 8, !tbaa !26
  %4 = call ptr @tsd_rtree_ctxp_get(ptr noundef %3)
  ret ptr %4
}

; Function Attrs: alwaysinline nounwind uwtable
define internal ptr @tsdn_tsd(ptr noundef %0) #3 {
  %2 = alloca ptr, align 8
  store ptr %0, ptr %2, align 8, !tbaa !14
  br label %3

3:                                                ; preds = %1
  br label %4

4:                                                ; preds = %3
  %5 = load ptr, ptr %2, align 8, !tbaa !14
  %6 = getelementptr inbounds nuw %struct.tsdn_s, ptr %5, i32 0, i32 0
  ret ptr %6
}

; Function Attrs: alwaysinline nounwind uwtable
define internal zeroext i1 @tsdn_null(ptr noundef %0) #3 {
  %2 = alloca ptr, align 8
  store ptr %0, ptr %2, align 8, !tbaa !14
  %3 = load ptr, ptr %2, align 8, !tbaa !14
  %4 = icmp eq ptr %3, null
  ret i1 %4
}

; Function Attrs: inlinehint nounwind uwtable
define internal void @edata_init(ptr noundef %0, i32 noundef %1, ptr noundef %2, i64 noundef %3, i1 noundef zeroext %4, i32 noundef %5, i64 noundef %6, i32 noundef %7, i1 noundef zeroext %8, i1 noundef zeroext %9, i32 noundef %10, i32 noundef %11) #2 {
  %13 = alloca ptr, align 8
  %14 = alloca i32, align 4
  %15 = alloca ptr, align 8
  %16 = alloca i64, align 8
  %17 = alloca i8, align 1
  %18 = alloca i32, align 4
  %19 = alloca i64, align 8
  %20 = alloca i32, align 4
  %21 = alloca i8, align 1
  %22 = alloca i8, align 1
  %23 = alloca i32, align 4
  %24 = alloca i32, align 4
  store ptr %0, ptr %13, align 8, !tbaa !16
  store i32 %1, ptr %14, align 4, !tbaa !18
  store ptr %2, ptr %15, align 8, !tbaa !40
  store i64 %3, ptr %16, align 8, !tbaa !34
  %25 = zext i1 %4 to i8
  store i8 %25, ptr %17, align 1, !tbaa !10
  store i32 %5, ptr %18, align 4, !tbaa !18
  store i64 %6, ptr %19, align 8, !tbaa !34
  store i32 %7, ptr %20, align 4, !tbaa !18
  %26 = zext i1 %8 to i8
  store i8 %26, ptr %21, align 1, !tbaa !10
  %27 = zext i1 %9 to i8
  store i8 %27, ptr %22, align 1, !tbaa !10
  store i32 %10, ptr %23, align 4, !tbaa !18
  store i32 %11, ptr %24, align 4, !tbaa !18
  br label %28

28:                                               ; preds = %12
  br label %29

29:                                               ; preds = %28
  %30 = load ptr, ptr %13, align 8, !tbaa !16
  %31 = load i32, ptr %14, align 4, !tbaa !18
  call void @edata_arena_ind_set(ptr noundef %30, i32 noundef %31)
  %32 = load ptr, ptr %13, align 8, !tbaa !16
  %33 = load ptr, ptr %15, align 8, !tbaa !40
  call void @edata_addr_set(ptr noundef %32, ptr noundef %33)
  %34 = load ptr, ptr %13, align 8, !tbaa !16
  %35 = load i64, ptr %16, align 8, !tbaa !34
  call void @edata_size_set(ptr noundef %34, i64 noundef %35)
  %36 = load ptr, ptr %13, align 8, !tbaa !16
  %37 = load i8, ptr %17, align 1, !tbaa !10, !range !12, !noundef !13
  %38 = trunc i8 %37 to i1
  call void @edata_slab_set(ptr noundef %36, i1 noundef zeroext %38)
  %39 = load ptr, ptr %13, align 8, !tbaa !16
  %40 = load i32, ptr %18, align 4, !tbaa !18
  call void @edata_szind_set(ptr noundef %39, i32 noundef %40)
  %41 = load ptr, ptr %13, align 8, !tbaa !16
  %42 = load i64, ptr %19, align 8, !tbaa !34
  call void @edata_sn_set(ptr noundef %41, i64 noundef %42)
  %43 = load ptr, ptr %13, align 8, !tbaa !16
  %44 = load i32, ptr %20, align 4, !tbaa !18
  call void @edata_state_set(ptr noundef %43, i32 noundef %44)
  %45 = load ptr, ptr %13, align 8, !tbaa !16
  call void @edata_guarded_set(ptr noundef %45, i1 noundef zeroext false)
  %46 = load ptr, ptr %13, align 8, !tbaa !16
  %47 = load i8, ptr %21, align 1, !tbaa !10, !range !12, !noundef !13
  %48 = trunc i8 %47 to i1
  call void @edata_zeroed_set(ptr noundef %46, i1 noundef zeroext %48)
  %49 = load ptr, ptr %13, align 8, !tbaa !16
  %50 = load i8, ptr %22, align 1, !tbaa !10, !range !12, !noundef !13
  %51 = trunc i8 %50 to i1
  call void @edata_committed_set(ptr noundef %49, i1 noundef zeroext %51)
  %52 = load ptr, ptr %13, align 8, !tbaa !16
  %53 = load i32, ptr %23, align 4, !tbaa !18
  call void @edata_pai_set(ptr noundef %52, i32 noundef %53)
  %54 = load ptr, ptr %13, align 8, !tbaa !16
  %55 = load i32, ptr %24, align 4, !tbaa !18
  %56 = icmp eq i32 %55, 1
  call void @edata_is_head_set(ptr noundef %54, i1 noundef zeroext %56)
  ret void
}

; Function Attrs: inlinehint nounwind uwtable
define internal ptr @edata_addr_get(ptr noundef %0) #2 {
  %2 = alloca ptr, align 8
  store ptr %0, ptr %2, align 8, !tbaa !16
  br label %3

3:                                                ; preds = %1
  br label %4

4:                                                ; preds = %3
  %5 = load ptr, ptr %2, align 8, !tbaa !16
  %6 = getelementptr inbounds nuw %struct.edata_s, ptr %5, i32 0, i32 1
  %7 = load ptr, ptr %6, align 8, !tbaa !38
  ret ptr %7
}

; Function Attrs: alwaysinline nounwind uwtable
define internal ptr @tsdn_rtree_ctx(ptr noundef %0, ptr noundef %1) #3 {
  %3 = alloca ptr, align 8
  %4 = alloca ptr, align 8
  %5 = alloca ptr, align 8
  store ptr %0, ptr %4, align 8, !tbaa !14
  store ptr %1, ptr %5, align 8, !tbaa !20
  %6 = load ptr, ptr %4, align 8, !tbaa !14
  %7 = call zeroext i1 @tsdn_null(ptr noundef %6)
  %8 = xor i1 %7, true
  %9 = xor i1 %8, true
  %10 = zext i1 %9 to i32
  %11 = sext i32 %10 to i64
  %12 = call i64 @llvm.expect.i64(i64 %11, i64 0)
  %13 = icmp ne i64 %12, 0
  br i1 %13, label %14, label %17

14:                                               ; preds = %2
  %15 = load ptr, ptr %5, align 8, !tbaa !20
  call void @duckdb_je_rtree_ctx_data_init(ptr noundef %15)
  %16 = load ptr, ptr %5, align 8, !tbaa !20
  store ptr %16, ptr %3, align 8
  br label %21

17:                                               ; preds = %2
  %18 = load ptr, ptr %4, align 8, !tbaa !14
  %19 = call ptr @tsdn_tsd(ptr noundef %18)
  %20 = call ptr @tsd_rtree_ctx(ptr noundef %19)
  store ptr %20, ptr %3, align 8
  br label %21

21:                                               ; preds = %17, %14
  %22 = load ptr, ptr %3, align 8
  ret ptr %22
}

; Function Attrs: nounwind uwtable
define zeroext i1 @duckdb_je_emap_split_prepare(ptr noundef %0, ptr noundef %1, ptr noundef %2, ptr noundef %3, i64 noundef %4, ptr noundef %5, i64 noundef %6) #0 {
  %8 = alloca i1, align 1
  %9 = alloca ptr, align 8
  %10 = alloca ptr, align 8
  %11 = alloca ptr, align 8
  %12 = alloca ptr, align 8
  %13 = alloca i64, align 8
  %14 = alloca ptr, align 8
  %15 = alloca i64, align 8
  %16 = alloca %struct.rtree_ctx_s, align 8
  %17 = alloca ptr, align 8
  %18 = alloca %struct.edata_s, align 8
  %19 = alloca i32, align 4
  store ptr %0, ptr %9, align 8, !tbaa !14
  store ptr %1, ptr %10, align 8, !tbaa !3
  store ptr %2, ptr %11, align 8, !tbaa !50
  store ptr %3, ptr %12, align 8, !tbaa !16
  store i64 %4, ptr %13, align 8, !tbaa !34
  store ptr %5, ptr %14, align 8, !tbaa !16
  store i64 %6, ptr %15, align 8, !tbaa !34
  call void @llvm.lifetime.start.p0(i64 384, ptr %16) #8
  call void @llvm.lifetime.start.p0(i64 8, ptr %17) #8
  %20 = load ptr, ptr %9, align 8, !tbaa !14
  %21 = call ptr @tsdn_rtree_ctx(ptr noundef %20, ptr noundef %16)
  store ptr %21, ptr %17, align 8, !tbaa !20
  call void @llvm.lifetime.start.p0(i64 128, ptr %18) #8
  call void @llvm.memset.p0.i64(ptr align 8 %18, i8 0, i64 128, i1 false)
  %22 = load ptr, ptr %12, align 8, !tbaa !16
  %23 = call ptr @edata_addr_get(ptr noundef %22)
  %24 = load i64, ptr %13, align 8, !tbaa !34
  call void @edata_init(ptr noundef %18, i32 noundef 0, ptr noundef %23, i64 noundef %24, i1 noundef zeroext false, i32 noundef 0, i64 noundef 0, i32 noundef 0, i1 noundef zeroext false, i1 noundef zeroext false, i32 noundef 0, i32 noundef 0)
  %25 = load ptr, ptr %9, align 8, !tbaa !14
  %26 = load ptr, ptr %10, align 8, !tbaa !3
  %27 = load ptr, ptr %17, align 8, !tbaa !20
  %28 = load ptr, ptr %11, align 8, !tbaa !50
  %29 = getelementptr inbounds nuw %struct.emap_prepare_s, ptr %28, i32 0, i32 0
  %30 = load ptr, ptr %11, align 8, !tbaa !50
  %31 = getelementptr inbounds nuw %struct.emap_prepare_s, ptr %30, i32 0, i32 1
  %32 = call zeroext i1 @emap_rtree_leaf_elms_lookup(ptr noundef %25, ptr noundef %26, ptr noundef %27, ptr noundef %18, i1 noundef zeroext false, i1 noundef zeroext true, ptr noundef %29, ptr noundef %31)
  %33 = load ptr, ptr %9, align 8, !tbaa !14
  %34 = load ptr, ptr %10, align 8, !tbaa !3
  %35 = load ptr, ptr %17, align 8, !tbaa !20
  %36 = load ptr, ptr %14, align 8, !tbaa !16
  %37 = load ptr, ptr %11, align 8, !tbaa !50
  %38 = getelementptr inbounds nuw %struct.emap_prepare_s, ptr %37, i32 0, i32 2
  %39 = load ptr, ptr %11, align 8, !tbaa !50
  %40 = getelementptr inbounds nuw %struct.emap_prepare_s, ptr %39, i32 0, i32 3
  %41 = call zeroext i1 @emap_rtree_leaf_elms_lookup(ptr noundef %33, ptr noundef %34, ptr noundef %35, ptr noundef %36, i1 noundef zeroext false, i1 noundef zeroext true, ptr noundef %38, ptr noundef %40)
  %42 = load ptr, ptr %11, align 8, !tbaa !50
  %43 = getelementptr inbounds nuw %struct.emap_prepare_s, ptr %42, i32 0, i32 0
  %44 = load ptr, ptr %43, align 8, !tbaa !52
  %45 = icmp eq ptr %44, null
  br i1 %45, label %61, label %46

46:                                               ; preds = %7
  %47 = load ptr, ptr %11, align 8, !tbaa !50
  %48 = getelementptr inbounds nuw %struct.emap_prepare_s, ptr %47, i32 0, i32 1
  %49 = load ptr, ptr %48, align 8, !tbaa !54
  %50 = icmp eq ptr %49, null
  br i1 %50, label %61, label %51

51:                                               ; preds = %46
  %52 = load ptr, ptr %11, align 8, !tbaa !50
  %53 = getelementptr inbounds nuw %struct.emap_prepare_s, ptr %52, i32 0, i32 2
  %54 = load ptr, ptr %53, align 8, !tbaa !55
  %55 = icmp eq ptr %54, null
  br i1 %55, label %61, label %56

56:                                               ; preds = %51
  %57 = load ptr, ptr %11, align 8, !tbaa !50
  %58 = getelementptr inbounds nuw %struct.emap_prepare_s, ptr %57, i32 0, i32 3
  %59 = load ptr, ptr %58, align 8, !tbaa !56
  %60 = icmp eq ptr %59, null
  br i1 %60, label %61, label %62

61:                                               ; preds = %56, %51, %46, %7
  store i1 true, ptr %8, align 1
  store i32 1, ptr %19, align 4
  br label %63

62:                                               ; preds = %56
  store i1 false, ptr %8, align 1
  store i32 1, ptr %19, align 4
  br label %63

63:                                               ; preds = %62, %61
  call void @llvm.lifetime.end.p0(i64 128, ptr %18) #8
  call void @llvm.lifetime.end.p0(i64 8, ptr %17) #8
  call void @llvm.lifetime.end.p0(i64 384, ptr %16) #8
  %64 = load i1, ptr %8, align 1
  ret i1 %64
}