; Function Attrs: nounwind uwtable
define zeroext i1 @duckdb_je_emap_split_prepare(ptr noundef %0, ptr noundef %1, ptr noundef captures(none) %2, ptr noundef readonly captures(none) %3, i64 noundef %4, ptr noundef readonly captures(none) %5, i64 noundef %6) local_unnamed_addr #0 {
  %8 = alloca %struct.rtree_ctx_s, align 8
  %9 = alloca %struct.edata_s, align 8
  call void @llvm.lifetime.start.p0(i64 384, ptr nonnull %8) #6
  %10 = icmp eq ptr %0, null
  br i1 %10, label %11, label %12, !prof !17

11:                                               ; preds = %7
  call void @duckdb_je_rtree_ctx_data_init(ptr noundef nonnull %8) #6
  br label %tsdn_rtree_ctx.exit

12:                                               ; preds = %7
  %13 = getelementptr inbounds nuw i8, ptr %0, i64 440
  br label %tsdn_rtree_ctx.exit

tsdn_rtree_ctx.exit:                              ; preds = %11, %12
  %.0.i = phi ptr [ %8, %11 ], [ %13, %12 ]
  call void @llvm.lifetime.start.p0(i64 128, ptr nonnull %9) #6
  %14 = getelementptr inbounds nuw i8, ptr %9, i64 24
  call void @llvm.memset.p0.i64(ptr noundef nonnull align 8 dereferenceable(128) %14, i8 0, i64 104, i1 false)
  %15 = getelementptr i8, ptr %3, i64 8
  %.val = load ptr, ptr %15, align 8, !tbaa !10
  %16 = getelementptr inbounds nuw i8, ptr %9, i64 8
  store ptr %.val, ptr %16, align 8, !tbaa !10
  %17 = getelementptr inbounds nuw i8, ptr %9, i64 16
  store i64 %4, ptr %17, align 8, !tbaa !16
  store i64 0, ptr %9, align 8, !tbaa !3
  %18 = getelementptr inbounds nuw i8, ptr %2, i64 8
  %19 = call fastcc zeroext i1 @emap_rtree_leaf_elms_lookup(ptr noundef %0, ptr noundef %1, ptr noundef nonnull %.0.i, ptr noundef nonnull %9, i1 noundef zeroext false, i1 noundef zeroext true, ptr noundef %2, ptr noundef nonnull %18)
  %20 = getelementptr inbounds nuw i8, ptr %2, i64 16
  %21 = getelementptr inbounds nuw i8, ptr %2, i64 24
  %22 = call fastcc zeroext i1 @emap_rtree_leaf_elms_lookup(ptr noundef %0, ptr noundef %1, ptr noundef nonnull %.0.i, ptr noundef %5, i1 noundef zeroext false, i1 noundef zeroext true, ptr noundef nonnull %20, ptr noundef nonnull %21)
  %23 = load ptr, ptr %2, align 8, !tbaa !26
  %24 = icmp eq ptr %23, null
  br i1 %24, label %34, label %25

25:                                               ; preds = %tsdn_rtree_ctx.exit
  %26 = load ptr, ptr %18, align 8, !tbaa !28
  %27 = icmp eq ptr %26, null
  br i1 %27, label %34, label %28

28:                                               ; preds = %25
  %29 = load ptr, ptr %20, align 8, !tbaa !29
  %30 = icmp eq ptr %29, null
  br i1 %30, label %34, label %31

31:                                               ; preds = %28
  %32 = load ptr, ptr %21, align 8, !tbaa !30
  %33 = icmp eq ptr %32, null
  br label %34

34:                                               ; preds = %31, %tsdn_rtree_ctx.exit, %25, %28
  %.0 = phi i1 [ true, %28 ], [ true, %25 ], [ true, %tsdn_rtree_ctx.exit ], [ %33, %31 ]
  call void @llvm.lifetime.end.p0(i64 128, ptr nonnull %9) #6
  call void @llvm.lifetime.end.p0(i64 384, ptr nonnull %8) #6
  ret i1 %.0
}